target datalayout = "e-m:e-p270:32:32-p271:32:32-p272:64:64-i64:64-i128:128-f80:128-n8:16:32:64-S128"
target triple = "x86_64-pc-linux-gnu"

%struct.CVodeMemRec = type { double, ptr, ptr, i32, i32, i32, double, double, ptr, i32, ptr, ptr, i32, ptr, i32, i32, double, double, ptr, i32, i32, i32, ptr, ptr, ptr, i32, i32, ptr, ptr, ptr, i32, double, i32, i32, double, ptr, ptr, i32, ptr, ptr, i32, i32, i32, double, ptr, ptr, [13 x ptr], ptr, ptr, ptr, ptr, ptr, [13 x ptr], ptr, ptr, ptr, ptr, [13 x ptr], ptr, ptr, ptr, ptr, ptr, i32, [13 x ptr], ptr, ptr, ptr, ptr, ptr, i32, double, i32, i32, i32, i32, i32, double, double, double, double, double, double, double, double, [14 x double], [6 x double], [13 x double], double, double, double, double, double, double, double, double, double, double, double, i32, ptr, i32, i64, i32, i32, i32, i32, i32, double, double, double, i64, i64, i64, i64, i64, i64, i64, i64, i64, ptr, i64, i64, ptr, i64, i64, i64, i64, i64, i64, i32, i64, i64, i64, i64, i64, i64, double, double, double, ptr, ptr, ptr, ptr, ptr, i32, i32, i64, double, double, double, i32, double, i32, i32, i32, i32, i32, i32, i32, i32, i32, i32, i32, i32, i32, i32, i32, i32, ptr, ptr, ptr, i32, [6 x [4 x double]], i32, i64, ptr, i32, ptr, ptr, double, double, double, ptr, ptr, ptr, double, double, i32, i32, i64, ptr, i32, i32, ptr, i32 }
%struct.CVadjMemRec = type { double, double, i32, i32, double, ptr, i32, ptr, i32, ptr, i32, ptr, i64, ptr, i64, i32, ptr, ptr, ptr, ptr, i32, i32, i32, i32, [13 x ptr], [13 x ptr], [13 x double], ptr, ptr, i64 }
%struct.CVodeBMemRec = type { i32, double, ptr, i32, i32, ptr, ptr, ptr, ptr, ptr, ptr, ptr, ptr, ptr, double, ptr, ptr }

@.str = private unnamed_addr constant [7 x i8] c"CVODEA\00", align 1
@.str.2 = private unnamed_addr constant [26 x i8] c"cvode_mem = NULL illegal.\00", align 1
@.str.5 = private unnamed_addr constant [25 x i8] c"A memory request failed.\00", align 1
@.str.7 = private unnamed_addr constant [55 x i8] c"Illegal attempt to call before calling CVodeAdjMalloc.\00", align 1
@.str.12 = private unnamed_addr constant [13 x i8] c"CVodeCreateB\00", align 1

; Function Attrs: nounwind uwtable
define i32 @CVodeCreateB(ptr noundef %0, i32 noundef %1, i32 noundef %2, ptr noundef %3) #0 {
  %5 = alloca i32, align 4
  %6 = alloca ptr, align 8
  %7 = alloca i32, align 4
  %8 = alloca i32, align 4
  %9 = alloca ptr, align 8
  %10 = alloca ptr, align 8
  %11 = alloca ptr, align 8
  %12 = alloca ptr, align 8
  %13 = alloca ptr, align 8
  %14 = alloca i32, align 4
  store ptr %0, ptr %6, align 8, !tbaa !3
  store i32 %1, ptr %7, align 4, !tbaa !9
  store i32 %2, ptr %8, align 4, !tbaa !9
  store ptr %3, ptr %9, align 8, !tbaa !140
  call void @llvm.lifetime.start.p0(i64 8, ptr %10) #5
  call void @llvm.lifetime.start.p0(i64 8, ptr %11) #5
  call void @llvm.lifetime.start.p0(i64 8, ptr %12) #5
  call void @llvm.lifetime.start.p0(i64 8, ptr %13) #5
  %15 = load ptr, ptr %6, align 8, !tbaa !3
  %16 = icmp eq ptr %15, null
  br i1 %16, label %17, label %18

17:                                               ; preds = %4
  call void (ptr, i32, ptr, ptr, ptr, ...) @cvProcessError(ptr noundef null, i32 noundef -21, ptr noundef @.str, ptr noundef @.str.12, ptr noundef @.str.2)
  store i32 -21, ptr %5, align 4
  store i32 1, ptr %14, align 4
  br label %110

18:                                               ; preds = %4
  %19 = load ptr, ptr %6, align 8, !tbaa !3
  store ptr %19, ptr %10, align 8, !tbaa !11
  %20 = load ptr, ptr %10, align 8, !tbaa !11
  %21 = getelementptr inbounds nuw %struct.CVodeMemRec, ptr %20, i32 0, i32 195
  %22 = load i32, ptr %21, align 8, !tbaa !53
  %23 = icmp eq i32 %22, 0
  br i1 %23, label %24, label %26

24:                                               ; preds = %18
  %25 = load ptr, ptr %10, align 8, !tbaa !11
  call void (ptr, i32, ptr, ptr, ptr, ...) @cvProcessError(ptr noundef %25, i32 noundef -101, ptr noundef @.str, ptr noundef @.str.12, ptr noundef @.str.7)
  store i32 -101, ptr %5, align 4
  store i32 1, ptr %14, align 4
  br label %110

26:                                               ; preds = %18
  %27 = load ptr, ptr %10, align 8, !tbaa !11
  %28 = getelementptr inbounds nuw %struct.CVodeMemRec, ptr %27, i32 0, i32 194
  %29 = load ptr, ptr %28, align 8, !tbaa !15
  store ptr %29, ptr %11, align 8, !tbaa !13
  store ptr null, ptr %12, align 8, !tbaa !132
  %30 = call noalias ptr @malloc(i64 noundef 128) #6
  store ptr %30, ptr %12, align 8, !tbaa !132
  %31 = load ptr, ptr %12, align 8, !tbaa !132
  %32 = icmp eq ptr %31, null
  br i1 %32, label %33, label %35

33:                                               ; preds = %26
  %34 = load ptr, ptr %10, align 8, !tbaa !11
  call void (ptr, i32, ptr, ptr, ptr, ...) @cvProcessError(ptr noundef %34, i32 noundef -20, ptr noundef @.str, ptr noundef @.str.12, ptr noundef @.str.5)
  store i32 -20, ptr %5, align 4
  store i32 1, ptr %14, align 4
  br label %110

35:                                               ; preds = %26
  %36 = load i32, ptr %7, align 4, !tbaa !9
  %37 = load i32, ptr %8, align 4, !tbaa !9
  %38 = call ptr @CVodeCreate(i32 noundef %36, i32 noundef %37)
  store ptr %38, ptr %13, align 8, !tbaa !3
  %39 = load ptr, ptr %13, align 8, !tbaa !3
  %40 = icmp eq ptr %39, null
  br i1 %40, label %41, label %43

41:                                               ; preds = %35
  %42 = load ptr, ptr %10, align 8, !tbaa !11
  call void (ptr, i32, ptr, ptr, ptr, ...) @cvProcessError(ptr noundef %42, i32 noundef -20, ptr noundef @.str, ptr noundef @.str.12, ptr noundef @.str.5)
  store i32 -20, ptr %5, align 4
  store i32 1, ptr %14, align 4
  br label %110

43:                                               ; preds = %35
  %44 = load ptr, ptr %13, align 8, !tbaa !3
  %45 = load ptr, ptr %6, align 8, !tbaa !3
  %46 = call i32 @CVodeSetUserData(ptr noundef %44, ptr noundef %45)
  %47 = load ptr, ptr %13, align 8, !tbaa !3
  %48 = call i32 @CVodeSetMaxHnilWarns(ptr noundef %47, i32 noundef -1)
  %49 = load ptr, ptr %13, align 8, !tbaa !3
  %50 = load ptr, ptr %10, align 8, !tbaa !11
  %51 = getelementptr inbounds nuw %struct.CVodeMemRec, ptr %50, i32 0, i32 169
  %52 = load ptr, ptr %51, align 8, !tbaa !215
  %53 = load ptr, ptr %10, align 8, !tbaa !11
  %54 = getelementptr inbounds nuw %struct.CVodeMemRec, ptr %53, i32 0, i32 170
  %55 = load ptr, ptr %54, align 8, !tbaa !216
  %56 = call i32 @CVodeSetErrHandlerFn(ptr noundef %49, ptr noundef %52, ptr noundef %55)
  %57 = load ptr, ptr %13, align 8, !tbaa !3
  %58 = load ptr, ptr %10, align 8, !tbaa !11
  %59 = getelementptr inbounds nuw %struct.CVodeMemRec, ptr %58, i32 0, i32 171
  %60 = load ptr, ptr %59, align 8, !tbaa !217
  %61 = call i32 @CVodeSetErrFile(ptr noundef %57, ptr noundef %60)
  %62 = load ptr, ptr %11, align 8, !tbaa !13
  %63 = getelementptr inbounds nuw %struct.CVadjMemRec, ptr %62, i32 0, i32 6
  %64 = load i32, ptr %63, align 8, !tbaa !48
  %65 = load ptr, ptr %12, align 8, !tbaa !132
  %66 = getelementptr inbounds nuw %struct.CVodeBMemRec, ptr %65, i32 0, i32 0
  store i32 %64, ptr %66, align 8, !tbaa !218
  %67 = load ptr, ptr %13, align 8, !tbaa !3
  %68 = load ptr, ptr %12, align 8, !tbaa !132
  %69 = getelementptr inbounds nuw %struct.CVodeBMemRec, ptr %68, i32 0, i32 2
  store ptr %67, ptr %69, align 8, !tbaa !135
  %70 = load ptr, ptr %12, align 8, !tbaa !132
  %71 = getelementptr inbounds nuw %struct.CVodeBMemRec, ptr %70, i32 0, i32 5
  store ptr null, ptr %71, align 8, !tbaa !219
  %72 = load ptr, ptr %12, align 8, !tbaa !132
  %73 = getelementptr inbounds nuw %struct.CVodeBMemRec, ptr %72, i32 0, i32 6
  store ptr null, ptr %73, align 8, !tbaa !220
  %74 = load ptr, ptr %12, align 8, !tbaa !132
  %75 = getelementptr inbounds nuw %struct.CVodeBMemRec, ptr %74, i32 0, i32 7
  store ptr null, ptr %75, align 8, !tbaa !221
  %76 = load ptr, ptr %12, align 8, !tbaa !132
  %77 = getelementptr inbounds nuw %struct.CVodeBMemRec, ptr %76, i32 0, i32 8
  store ptr null, ptr %77, align 8, !tbaa !222
  %78 = load ptr, ptr %12, align 8, !tbaa !132
  %79 = getelementptr inbounds nuw %struct.CVodeBMemRec, ptr %78, i32 0, i32 9
  store ptr null, ptr %79, align 8, !tbaa !223
  %80 = load ptr, ptr %12, align 8, !tbaa !132
  %81 = getelementptr inbounds nuw %struct.CVodeBMemRec, ptr %80, i32 0, i32 10
  store ptr null, ptr %81, align 8, !tbaa !224
  %82 = load ptr, ptr %12, align 8, !tbaa !132
  %83 = getelementptr inbounds nuw %struct.CVodeBMemRec, ptr %82, i32 0, i32 11
  store ptr null, ptr %83, align 8, !tbaa !136
  %84 = load ptr, ptr %12, align 8, !tbaa !132
  %85 = getelementptr inbounds nuw %struct.CVodeBMemRec, ptr %84, i32 0, i32 12
  store ptr null, ptr %85, align 8, !tbaa !225
  %86 = load ptr, ptr %12, align 8, !tbaa !132
  %87 = getelementptr inbounds nuw %struct.CVodeBMemRec, ptr %86, i32 0, i32 13
  store ptr null, ptr %87, align 8, !tbaa !137
  %88 = load ptr, ptr %12, align 8, !tbaa !132
  %89 = getelementptr inbounds nuw %struct.CVodeBMemRec, ptr %88, i32 0, i32 15
  store ptr null, ptr %89, align 8, !tbaa !138
  %90 = load ptr, ptr %12, align 8, !tbaa !132
  %91 = getelementptr inbounds nuw %struct.CVodeBMemRec, ptr %90, i32 0, i32 3
  store i32 0, ptr %91, align 8, !tbaa !226
  %92 = load ptr, ptr %12, align 8, !tbaa !132
  %93 = getelementptr inbounds nuw %struct.CVodeBMemRec, ptr %92, i32 0, i32 4
  store i32 0, ptr %93, align 4, !tbaa !227
  %94 = load ptr, ptr %11, align 8, !tbaa !13
  %95 = getelementptr inbounds nuw %struct.CVadjMemRec, ptr %94, i32 0, i32 5
  %96 = load ptr, ptr %95, align 8, !tbaa !46
  %97 = load ptr, ptr %12, align 8, !tbaa !132
  %98 = getelementptr inbounds nuw %struct.CVodeBMemRec, ptr %97, i32 0, i32 16
  store ptr %96, ptr %98, align 8, !tbaa !133
  %99 = load ptr, ptr %12, align 8, !tbaa !132
  %100 = load ptr, ptr %11, align 8, !tbaa !13
  %101 = getelementptr inbounds nuw %struct.CVadjMemRec, ptr %100, i32 0, i32 5
  store ptr %99, ptr %101, align 8, !tbaa !46
  %102 = load ptr, ptr %11, align 8, !tbaa !13
  %103 = getelementptr inbounds nuw %struct.CVadjMemRec, ptr %102, i32 0, i32 6
  %104 = load i32, ptr %103, align 8, !tbaa !48
  %105 = load ptr, ptr %9, align 8, !tbaa !140
  store i32 %104, ptr %105, align 4, !tbaa !9
  %106 = load ptr, ptr %11, align 8, !tbaa !13
  %107 = getelementptr inbounds nuw %struct.CVadjMemRec, ptr %106, i32 0, i32 6
  %108 = load i32, ptr %107, align 8, !tbaa !48
  %109 = add nsw i32 %108, 1
  store i32 %109, ptr %107, align 8, !tbaa !48
  store i32 0, ptr %5, align 4
  store i32 1, ptr %14, align 4
  br label %110

110:                                              ; preds = %43, %41, %33, %24, %17
  call void @llvm.lifetime.end.p0(i64 8, ptr %13) #5
  call void @llvm.lifetime.end.p0(i64 8, ptr %12) #5
  call void @llvm.lifetime.end.p0(i64 8, ptr %11) #5
  call void @llvm.lifetime.end.p0(i64 8, ptr %10) #5
  %111 = load i32, ptr %5, align 4
  ret i32 %111
}