; Function Attrs: nounwind uwtable
define range(i32 -101, 1) i32 @CVodeCreateB(ptr noundef %0, i32 noundef %1, i32 noundef %2, ptr noundef writeonly captures(none) %3) local_unnamed_addr #0 {
  %5 = icmp eq ptr %0, null
  br i1 %5, label %6, label %7

6:                                                ; preds = %4
  tail call void (ptr, i32, ptr, ptr, ptr, ...) @cvProcessError(ptr noundef null, i32 noundef -21, ptr noundef nonnull @.str, ptr noundef nonnull @.str.12, ptr noundef nonnull @.str.2) #8
  br label %42

7:                                                ; preds = %4
  %8 = getelementptr inbounds nuw i8, ptr %0, i64 2200
  %9 = load i32, ptr %8, align 8, !tbaa !47
  %10 = icmp eq i32 %9, 0
  br i1 %10, label %11, label %12

11:                                               ; preds = %7
  tail call void (ptr, i32, ptr, ptr, ptr, ...) @cvProcessError(ptr noundef nonnull %0, i32 noundef -101, ptr noundef nonnull @.str, ptr noundef nonnull @.str.12, ptr noundef nonnull @.str.7) #8
  br label %42

12:                                               ; preds = %7
  %13 = getelementptr inbounds nuw i8, ptr %0, i64 2192
  %14 = load ptr, ptr %13, align 8, !tbaa !3
  %15 = tail call noalias dereferenceable_or_null(128) ptr @malloc(i64 noundef 128) #9
  %16 = icmp eq ptr %15, null
  br i1 %16, label %17, label %18

17:                                               ; preds = %12
  tail call void (ptr, i32, ptr, ptr, ptr, ...) @cvProcessError(ptr noundef nonnull %0, i32 noundef -20, ptr noundef nonnull @.str, ptr noundef nonnull @.str.12, ptr noundef nonnull @.str.5) #8
  br label %42

18:                                               ; preds = %12
  %19 = tail call ptr @CVodeCreate(i32 noundef %1, i32 noundef %2) #8
  %20 = icmp eq ptr %19, null
  br i1 %20, label %21, label %22

21:                                               ; preds = %18
  tail call void (ptr, i32, ptr, ptr, ptr, ...) @cvProcessError(ptr noundef nonnull %0, i32 noundef -20, ptr noundef nonnull @.str, ptr noundef nonnull @.str.12, ptr noundef nonnull @.str.5) #8
  br label %42

22:                                               ; preds = %18
  %23 = tail call i32 @CVodeSetUserData(ptr noundef nonnull %19, ptr noundef nonnull %0) #8
  %24 = tail call i32 @CVodeSetMaxHnilWarns(ptr noundef nonnull %19, i32 noundef -1) #8
  %25 = getelementptr inbounds nuw i8, ptr %0, i64 1824
  %26 = load ptr, ptr %25, align 8, !tbaa !200
  %27 = getelementptr inbounds nuw i8, ptr %0, i64 1832
  %28 = load ptr, ptr %27, align 8, !tbaa !201
  %29 = tail call i32 @CVodeSetErrHandlerFn(ptr noundef nonnull %19, ptr noundef %26, ptr noundef %28) #8
  %30 = getelementptr inbounds nuw i8, ptr %0, i64 1840
  %31 = load ptr, ptr %30, align 8, !tbaa !202
  %32 = tail call i32 @CVodeSetErrFile(ptr noundef nonnull %19, ptr noundef %31) #8
  %33 = getelementptr inbounds nuw i8, ptr %14, i64 40
  %34 = load i32, ptr %33, align 8, !tbaa !42
  store i32 %34, ptr %15, align 8, !tbaa !203
  %35 = getelementptr inbounds nuw i8, ptr %15, i64 16
  store ptr %19, ptr %35, align 8, !tbaa !123
  %36 = getelementptr inbounds nuw i8, ptr %15, i64 112
  store ptr null, ptr %36, align 8, !tbaa !127
  %37 = getelementptr inbounds nuw i8, ptr %15, i64 24
  %38 = getelementptr inbounds nuw i8, ptr %14, i64 32
  tail call void @llvm.memset.p0.i64(ptr noundef nonnull align 8 dereferenceable(80) %37, i8 0, i64 80, i1 false)
  %39 = load ptr, ptr %38, align 8, !tbaa !40
  %40 = getelementptr inbounds nuw i8, ptr %15, i64 120
  store ptr %39, ptr %40, align 8, !tbaa !119
  store ptr %15, ptr %38, align 8, !tbaa !40
  store i32 %34, ptr %3, align 4, !tbaa !145
  %41 = add nsw i32 %34, 1
  store i32 %41, ptr %33, align 8, !tbaa !42
  br label %42

42:                                               ; preds = %22, %21, %17, %11, %6
  %.0 = phi i32 [ -21, %6 ], [ -101, %11 ], [ -20, %17 ], [ -20, %21 ], [ 0, %22 ]
  ret i32 %.0
}